target datalayout = "e-m:e-p270:32:32-p271:32:32-p272:64:64-i64:64-i128:128-f80:128-n8:16:32:64-S128"
target triple = "x86_64-pc-linux-gnu"

%struct.ident_t = type { i32, i32, i32, i32, ptr }
%"struct.faiss::AdditiveQuantizer" = type <{ %"struct.faiss::Quantizer", i64, %"class.std::vector", %"class.std::vector.0", %"class.std::vector", i64, i64, i64, i8, i8, i8, [5 x i8], %"struct.faiss::IndexFlat1D", %"class.std::vector.0", i64, i32, float, float, [4 x i8] }>
%"struct.faiss::Quantizer" = type { ptr, i64, i64 }
%"class.std::vector" = type { %"struct.std::_Vector_base" }
%"struct.std::_Vector_base" = type { %"struct.std::_Vector_base<unsigned long, std::allocator<unsigned long>>::_Vector_impl" }
%"struct.std::_Vector_base<unsigned long, std::allocator<unsigned long>>::_Vector_impl" = type { %"struct.std::_Vector_base<unsigned long, std::allocator<unsigned long>>::_Vector_impl_data" }
%"struct.std::_Vector_base<unsigned long, std::allocator<unsigned long>>::_Vector_impl_data" = type { ptr, ptr, ptr }
%"struct.faiss::IndexFlat1D" = type { %"struct.faiss::IndexFlatL2", i8, %"class.std::vector.10" }
%"struct.faiss::IndexFlatL2" = type { %"struct.faiss::IndexFlat", %"class.std::vector.0" }
%"struct.faiss::IndexFlat" = type { %"struct.faiss::IndexFlatCodes" }
%"struct.faiss::IndexFlatCodes" = type { %"struct.faiss::Index.base", i64, %"class.std::vector.5" }
%"struct.faiss::Index.base" = type <{ ptr, i32, [4 x i8], i64, i8, i8, [2 x i8], i32, float }>
%"class.std::vector.5" = type { %"struct.std::_Vector_base.6" }
%"struct.std::_Vector_base.6" = type { %"struct.std::_Vector_base<unsigned char, std::allocator<unsigned char>>::_Vector_impl" }
%"struct.std::_Vector_base<unsigned char, std::allocator<unsigned char>>::_Vector_impl" = type { %"struct.std::_Vector_base<unsigned char, std::allocator<unsigned char>>::_Vector_impl_data" }
%"struct.std::_Vector_base<unsigned char, std::allocator<unsigned char>>::_Vector_impl_data" = type { ptr, ptr, ptr }
%"class.std::vector.10" = type { %"struct.std::_Vector_base.11" }
%"struct.std::_Vector_base.11" = type { %"struct.std::_Vector_base<long, std::allocator<long>>::_Vector_impl" }
%"struct.std::_Vector_base<long, std::allocator<long>>::_Vector_impl" = type { %"struct.std::_Vector_base<long, std::allocator<long>>::_Vector_impl_data" }
%"struct.std::_Vector_base<long, std::allocator<long>>::_Vector_impl_data" = type { ptr, ptr, ptr }
%"class.std::vector.0" = type { %"struct.std::_Vector_base.1" }
%"struct.std::_Vector_base.1" = type { %"struct.std::_Vector_base<float, std::allocator<float>>::_Vector_impl" }
%"struct.std::_Vector_base<float, std::allocator<float>>::_Vector_impl" = type { %"struct.std::_Vector_base<float, std::allocator<float>>::_Vector_impl_data" }
%"struct.std::_Vector_base<float, std::allocator<float>>::_Vector_impl_data" = type { ptr, ptr, ptr }
%"struct.faiss::BitstringWriter" = type { ptr, i64, i64 }

@1 = private unnamed_addr constant %struct.ident_t { i32 0, i32 514, i32 0, i32 22, ptr @0 }, align 8

; Function Attrs: mustprogress nounwind uwtable
define linkonce_odr void @_ZN5faiss15BitstringWriter5writeEmi(ptr noundef nonnull align 8 dereferenceable(24) %0, i64 noundef %1, i32 noundef %2) #1 comdat align 2 {
  %4 = alloca ptr, align 8
  %5 = alloca i64, align 8
  %6 = alloca i32, align 4
  %7 = alloca i32, align 4
  %8 = alloca i64, align 8
  store ptr %0, ptr %4, align 8
  store i64 %1, ptr %5, align 8
  store i32 %2, ptr %6, align 4
  %9 = load ptr, ptr %4, align 8
  %10 = getelementptr inbounds %"struct.faiss::BitstringWriter", ptr %9, i32 0, i32 2
  %11 = load i64, ptr %10, align 8
  %12 = and i64 %11, 7
  %13 = sub i64 8, %12
  %14 = trunc i64 %13 to i32
  store i32 %14, ptr %7, align 4
  %15 = load i32, ptr %6, align 4
  %16 = load i32, ptr %7, align 4
  %17 = icmp sle i32 %15, %16
  br i1 %17, label %18, label %39

18:                                               ; preds = %3
  %19 = load i64, ptr %5, align 8
  %20 = getelementptr inbounds %"struct.faiss::BitstringWriter", ptr %9, i32 0, i32 2
  %21 = load i64, ptr %20, align 8
  %22 = and i64 %21, 7
  %23 = shl i64 %19, %22
  %24 = getelementptr inbounds %"struct.faiss::BitstringWriter", ptr %9, i32 0, i32 0
  %25 = load ptr, ptr %24, align 8
  %26 = getelementptr inbounds %"struct.faiss::BitstringWriter", ptr %9, i32 0, i32 2
  %27 = load i64, ptr %26, align 8
  %28 = lshr i64 %27, 3
  %29 = getelementptr inbounds i8, ptr %25, i64 %28
  %30 = load i8, ptr %29, align 1
  %31 = zext i8 %30 to i64
  %32 = or i64 %31, %23
  %33 = trunc i64 %32 to i8
  store i8 %33, ptr %29, align 1
  %34 = load i32, ptr %6, align 4
  %35 = sext i32 %34 to i64
  %36 = getelementptr inbounds %"struct.faiss::BitstringWriter", ptr %9, i32 0, i32 2
  %37 = load i64, ptr %36, align 8
  %38 = add i64 %37, %35
  store i64 %38, ptr %36, align 8
  br label %83

39:                                               ; preds = %3
  %40 = getelementptr inbounds %"struct.faiss::BitstringWriter", ptr %9, i32 0, i32 2
  %41 = load i64, ptr %40, align 8
  %42 = lshr i64 %41, 3
  store i64 %42, ptr %8, align 8
  %43 = load i64, ptr %5, align 8
  %44 = getelementptr inbounds %"struct.faiss::BitstringWriter", ptr %9, i32 0, i32 2
  %45 = load i64, ptr %44, align 8
  %46 = and i64 %45, 7
  %47 = shl i64 %43, %46
  %48 = getelementptr inbounds %"struct.faiss::BitstringWriter", ptr %9, i32 0, i32 0
  %49 = load ptr, ptr %48, align 8
  %50 = load i64, ptr %8, align 8
  %51 = add i64 %50, 1
  store i64 %51, ptr %8, align 8
  %52 = getelementptr inbounds i8, ptr %49, i64 %50
  %53 = load i8, ptr %52, align 1
  %54 = zext i8 %53 to i64
  %55 = or i64 %54, %47
  %56 = trunc i64 %55 to i8
  store i8 %56, ptr %52, align 1
  %57 = load i32, ptr %6, align 4
  %58 = sext i32 %57 to i64
  %59 = getelementptr inbounds %"struct.faiss::BitstringWriter", ptr %9, i32 0, i32 2
  %60 = load i64, ptr %59, align 8
  %61 = add i64 %60, %58
  store i64 %61, ptr %59, align 8
  %62 = load i32, ptr %7, align 4
  %63 = load i64, ptr %5, align 8
  %64 = zext i32 %62 to i64
  %65 = lshr i64 %63, %64
  store i64 %65, ptr %5, align 8
  br label %66

66:                                               ; preds = %69, %39
  %67 = load i64, ptr %5, align 8
  %68 = icmp ne i64 %67, 0
  br i1 %68, label %69, label %82

69:                                               ; preds = %66
  %70 = load i64, ptr %5, align 8
  %71 = getelementptr inbounds %"struct.faiss::BitstringWriter", ptr %9, i32 0, i32 0
  %72 = load ptr, ptr %71, align 8
  %73 = load i64, ptr %8, align 8
  %74 = add i64 %73, 1
  store i64 %74, ptr %8, align 8
  %75 = getelementptr inbounds i8, ptr %72, i64 %73
  %76 = load i8, ptr %75, align 1
  %77 = zext i8 %76 to i64
  %78 = or i64 %77, %70
  %79 = trunc i64 %78 to i8
  store i8 %79, ptr %75, align 1
  %80 = load i64, ptr %5, align 8
  %81 = lshr i64 %80, 8
  store i64 %81, ptr %5, align 8
  br label %66, !llvm.loop !13

82:                                               ; preds = %66
  br label %83

83:                                               ; preds = %82, %18
  ret void
}

; Function Attrs: mustprogress nounwind uwtable
define linkonce_odr noundef nonnull align 8 dereferenceable(8) ptr @_ZNKSt6vectorImSaImEEixEm(ptr noundef nonnull align 8 dereferenceable(24) %0, i64 noundef %1) #1 comdat align 2 {
  %3 = alloca ptr, align 8
  %4 = alloca i64, align 8
  store ptr %0, ptr %3, align 8
  store i64 %1, ptr %4, align 8
  %5 = load ptr, ptr %3, align 8
  %6 = getelementptr inbounds %"struct.std::_Vector_base", ptr %5, i32 0, i32 0
  %7 = getelementptr inbounds %"struct.std::_Vector_base<unsigned long, std::allocator<unsigned long>>::_Vector_impl_data", ptr %6, i32 0, i32 0
  %8 = load ptr, ptr %7, align 8
  %9 = load i64, ptr %4, align 8
  %10 = getelementptr inbounds i64, ptr %8, i64 %9
  ret ptr %10
}

; Function Attrs: mustprogress nounwind uwtable
define linkonce_odr void @_ZN5faiss15BitstringWriterC2EPhm(ptr noundef nonnull align 8 dereferenceable(24) %0, ptr noundef %1, i64 noundef %2) unnamed_addr #1 comdat align 2 {
  %4 = alloca ptr, align 8
  %5 = alloca ptr, align 8
  %6 = alloca i64, align 8
  store ptr %0, ptr %4, align 8
  store ptr %1, ptr %5, align 8
  store i64 %2, ptr %6, align 8
  %7 = load ptr, ptr %4, align 8
  %8 = getelementptr inbounds %"struct.faiss::BitstringWriter", ptr %7, i32 0, i32 0
  %9 = load ptr, ptr %5, align 8
  store ptr %9, ptr %8, align 8
  %10 = getelementptr inbounds %"struct.faiss::BitstringWriter", ptr %7, i32 0, i32 1
  %11 = load i64, ptr %6, align 8
  store i64 %11, ptr %10, align 8
  %12 = getelementptr inbounds %"struct.faiss::BitstringWriter", ptr %7, i32 0, i32 2
  store i64 0, ptr %12, align 8
  %13 = load ptr, ptr %5, align 8
  %14 = load i64, ptr %6, align 8
  call void @llvm.memset.p0.i64(ptr align 1 %13, i8 0, i64 %14, i1 false)
  ret void
}

; Function Attrs: norecurse nounwind uwtable
define internal void @_ZNK5faiss17AdditiveQuantizer10pack_codesEmPKiPhlPKfS5_.omp_outlined(ptr noalias noundef %0, ptr noalias noundef %1, ptr noundef nonnull align 8 dereferenceable(8) %2, ptr noundef nonnull align 8 dereferenceable(8) %3, ptr noundef nonnull align 8 dereferenceable(8) %4, ptr noundef nonnull align 8 dereferenceable(8) %5, ptr noundef %6, ptr noundef nonnull align 8 dereferenceable(8) %7) #12 personality ptr @__gxx_personality_v0 {
  %9 = alloca ptr, align 8
  %10 = alloca ptr, align 8
  %11 = alloca ptr, align 8
  %12 = alloca ptr, align 8
  %13 = alloca ptr, align 8
  %14 = alloca ptr, align 8
  %15 = alloca ptr, align 8
  %16 = alloca ptr, align 8
  %17 = alloca i64, align 8
  %18 = alloca i64, align 8
  %19 = alloca i64, align 8
  %20 = alloca i64, align 8
  %21 = alloca i64, align 8
  %22 = alloca i64, align 8
  %23 = alloca i64, align 8
  %24 = alloca i32, align 4
  %25 = alloca i64, align 8
  %26 = alloca ptr, align 8
  %27 = alloca %"struct.faiss::BitstringWriter", align 8
  %28 = alloca i32, align 4
  store ptr %0, ptr %9, align 8
  store ptr %1, ptr %10, align 8
  store ptr %2, ptr %11, align 8
  store ptr %3, ptr %12, align 8
  store ptr %4, ptr %13, align 8
  store ptr %5, ptr %14, align 8
  store ptr %6, ptr %15, align 8
  store ptr %7, ptr %16, align 8
  %29 = load ptr, ptr %11, align 8
  %30 = load ptr, ptr %12, align 8
  %31 = load ptr, ptr %13, align 8
  %32 = load ptr, ptr %14, align 8
  %33 = load ptr, ptr %15, align 8
  %34 = load ptr, ptr %16, align 8
  %35 = load i64, ptr %29, align 8
  store i64 %35, ptr %18, align 8
  %36 = load i64, ptr %18, align 8
  %37 = sub i64 %36, 0
  %38 = udiv i64 %37, 1
  %39 = sub i64 %38, 1
  store i64 %39, ptr %19, align 8
  store i64 0, ptr %20, align 8
  %40 = load i64, ptr %18, align 8
  %41 = icmp ult i64 0, %40
  br i1 %41, label %42, label %126

42:                                               ; preds = %8
  store i64 0, ptr %21, align 8
  %43 = load i64, ptr %19, align 8
  store i64 %43, ptr %22, align 8
  store i64 1, ptr %23, align 8
  store i32 0, ptr %24, align 4
  %44 = load ptr, ptr %9, align 8
  %45 = load i32, ptr %44, align 4
  call void @__kmpc_for_static_init_8u(ptr @1, i32 %45, i32 34, ptr %24, ptr %21, ptr %22, ptr %23, i64 1, i64 1)
  %46 = load i64, ptr %22, align 8
  %47 = load i64, ptr %19, align 8
  %48 = icmp ugt i64 %46, %47
  br i1 %48, label %49, label %51

49:                                               ; preds = %42
  %50 = load i64, ptr %19, align 8
  br label %53

51:                                               ; preds = %42
  %52 = load i64, ptr %22, align 8
  br label %53

53:                                               ; preds = %51, %49
  %54 = phi i64 [ %50, %49 ], [ %52, %51 ]
  store i64 %54, ptr %22, align 8
  %55 = load i64, ptr %21, align 8
  store i64 %55, ptr %17, align 8
  br label %56

56:                                               ; preds = %119, %53
  %57 = load i64, ptr %17, align 8
  %58 = load i64, ptr %22, align 8
  %59 = add i64 %58, 1
  %60 = icmp ult i64 %57, %59
  br i1 %60, label %61, label %122

61:                                               ; preds = %56
  %62 = load i64, ptr %17, align 8
  %63 = mul i64 %62, 1
  %64 = add i64 0, %63
  store i64 %64, ptr %25, align 8
  %65 = load ptr, ptr %30, align 8
  %66 = load i64, ptr %25, align 8
  %67 = load i64, ptr %31, align 8
  %68 = mul nsw i64 %66, %67
  %69 = getelementptr inbounds i32, ptr %65, i64 %68
  store ptr %69, ptr %26, align 8
  %70 = load ptr, ptr %32, align 8
  %71 = load i64, ptr %25, align 8
  %72 = getelementptr inbounds %"struct.faiss::Quantizer", ptr %33, i32 0, i32 2
  %73 = load i64, ptr %72, align 8
  %74 = mul i64 %71, %73
  %75 = getelementptr inbounds i8, ptr %70, i64 %74
  %76 = getelementptr inbounds %"struct.faiss::Quantizer", ptr %33, i32 0, i32 2
  %77 = load i64, ptr %76, align 8
  invoke void @_ZN5faiss15BitstringWriterC2EPhm(ptr noundef nonnull align 8 dereferenceable(24) %27, ptr noundef %75, i64 noundef %77)
          to label %78 unwind label %127

78:                                               ; preds = %61
  store i32 0, ptr %28, align 4
  br label %79

79:                                               ; preds = %99, %78
  %80 = load i32, ptr %28, align 4
  %81 = sext i32 %80 to i64
  %82 = getelementptr inbounds %"struct.faiss::AdditiveQuantizer", ptr %33, i32 0, i32 1
  %83 = load i64, ptr %82, align 8
  %84 = icmp ult i64 %81, %83
  br i1 %84, label %85, label %102

85:                                               ; preds = %79
  %86 = load ptr, ptr %26, align 8
  %87 = load i32, ptr %28, align 4
  %88 = sext i32 %87 to i64
  %89 = getelementptr inbounds i32, ptr %86, i64 %88
  %90 = load i32, ptr %89, align 4
  %91 = sext i32 %90 to i64
  %92 = getelementptr inbounds %"struct.faiss::AdditiveQuantizer", ptr %33, i32 0, i32 2
  %93 = load i32, ptr %28, align 4
  %94 = sext i32 %93 to i64
  %95 = call noundef nonnull align 8 dereferenceable(8) ptr @_ZNKSt6vectorImSaImEEixEm(ptr noundef nonnull align 8 dereferenceable(24) %92, i64 noundef %94) #13
  %96 = load i64, ptr %95, align 8
  %97 = trunc i64 %96 to i32
  invoke void @_ZN5faiss15BitstringWriter5writeEmi(ptr noundef nonnull align 8 dereferenceable(24) %27, i64 noundef %91, i32 noundef %97)
          to label %98 unwind label %127

98:                                               ; preds = %85
  br label %99

99:                                               ; preds = %98
  %100 = load i32, ptr %28, align 4
  %101 = add nsw i32 %100, 1
  store i32 %101, ptr %28, align 4
  br label %79, !llvm.loop !12

102:                                              ; preds = %79
  %103 = getelementptr inbounds %"struct.faiss::AdditiveQuantizer", ptr %33, i32 0, i32 6
  %104 = load i64, ptr %103, align 8
  %105 = icmp ne i64 %104, 0
  br i1 %105, label %106, label %117

106:                                              ; preds = %102
  %107 = load ptr, ptr %34, align 8
  %108 = load i64, ptr %25, align 8
  %109 = getelementptr inbounds float, ptr %107, i64 %108
  %110 = load float, ptr %109, align 4
  %111 = invoke noundef i64 @_ZNK5faiss17AdditiveQuantizer11encode_normEf(ptr noundef nonnull align 8 dereferenceable(308) %33, float noundef %110)
          to label %112 unwind label %127

112:                                              ; preds = %106
  %113 = getelementptr inbounds %"struct.faiss::AdditiveQuantizer", ptr %33, i32 0, i32 6
  %114 = load i64, ptr %113, align 8
  %115 = trunc i64 %114 to i32
  invoke void @_ZN5faiss15BitstringWriter5writeEmi(ptr noundef nonnull align 8 dereferenceable(24) %27, i64 noundef %111, i32 noundef %115)
          to label %116 unwind label %127

116:                                              ; preds = %112
  br label %117

117:                                              ; preds = %116, %102
  br label %118

118:                                              ; preds = %117
  br label %119

119:                                              ; preds = %118
  %120 = load i64, ptr %17, align 8
  %121 = add i64 %120, 1
  store i64 %121, ptr %17, align 8
  br label %56

122:                                              ; preds = %56
  br label %123

123:                                              ; preds = %122
  %124 = load ptr, ptr %9, align 8
  %125 = load i32, ptr %124, align 4
  call void @__kmpc_for_static_fini(ptr @1, i32 %125)
  br label %126

126:                                              ; preds = %123, %8
  ret void

127:                                              ; preds = %112, %106, %85, %61
  %128 = landingpad { ptr, i32 }
          catch ptr null
  %129 = extractvalue { ptr, i32 } %128, 0
  call void @__clang_call_terminate(ptr %129) #16
  unreachable
}