; Function Attrs: norecurse nounwind uwtable
define internal void @_ZNK5faiss17AdditiveQuantizer10pack_codesEmPKiPhlPKfS5_.omp_outlined(ptr noalias nocapture noundef readonly %0, ptr noalias nocapture readnone %1, ptr nocapture noundef nonnull readonly align 8 dereferenceable(8) %2, ptr nocapture noundef nonnull readonly align 8 dereferenceable(8) %3, ptr nocapture noundef nonnull readonly align 8 dereferenceable(8) %4, ptr nocapture noundef nonnull readonly align 8 dereferenceable(8) %5, ptr noundef %6, ptr nocapture noundef nonnull readonly align 8 dereferenceable(8) %7) #14 personality ptr @__gxx_personality_v0 {
  %9 = alloca i64, align 8
  %10 = alloca i64, align 8
  %11 = alloca i64, align 8
  %12 = alloca i32, align 4
  %13 = load i64, ptr %2, align 8
  %.not = icmp eq i64 %13, 0
  br i1 %.not, label %106, label %14

14:                                               ; preds = %8
  %15 = add i64 %13, -1
  store i64 0, ptr %9, align 8
  store i64 %15, ptr %10, align 8
  store i64 1, ptr %11, align 8
  store i32 0, ptr %12, align 4
  %16 = load i32, ptr %0, align 4
  call void @__kmpc_for_static_init_8u(ptr nonnull @1, i32 %16, i32 34, ptr nonnull %12, ptr nonnull %9, ptr nonnull %10, ptr nonnull %11, i64 1, i64 1)
  %17 = load i64, ptr %10, align 8
  %18 = call i64 @llvm.umin.i64(i64 %17, i64 %15)
  store i64 %18, ptr %10, align 8
  %19 = load i64, ptr %9, align 8
  %.not52 = icmp ugt i64 %19, %18
  br i1 %.not52, label %._crit_edge49, label %.lr.ph48

.lr.ph48:                                         ; preds = %14
  %20 = getelementptr inbounds i8, ptr %6, i64 16
  %21 = getelementptr inbounds i8, ptr %6, i64 24
  %22 = getelementptr inbounds i8, ptr %6, i64 32
  %23 = getelementptr inbounds i8, ptr %6, i64 112
  br label %24

24:                                               ; preds = %.lr.ph48, %_ZN5faiss15BitstringWriter5writeEmi.exit33
  %.02346 = phi i64 [ %19, %.lr.ph48 ], [ %102, %_ZN5faiss15BitstringWriter5writeEmi.exit33 ]
  %25 = load ptr, ptr %3, align 8
  %26 = load i64, ptr %4, align 8
  %27 = mul nsw i64 %26, %.02346
  %28 = getelementptr inbounds i32, ptr %25, i64 %27
  %29 = load ptr, ptr %5, align 8
  %30 = load i64, ptr %20, align 8
  %31 = mul i64 %30, %.02346
  %32 = getelementptr inbounds i8, ptr %29, i64 %31
  call void @llvm.memset.p0.i64(ptr align 1 %32, i8 0, i64 %30, i1 false)
  %33 = load i64, ptr %21, align 8
  %.not50 = icmp eq i64 %33, 0
  br i1 %.not50, label %._crit_edge, label %.lr.ph

.lr.ph:                                           ; preds = %24, %_ZN5faiss15BitstringWriter5writeEmi.exit
  %indvars.iv = phi i64 [ %indvars.iv.next, %_ZN5faiss15BitstringWriter5writeEmi.exit ], [ 0, %24 ]
  %.sroa.8.044 = phi i64 [ %.sroa.8.1, %_ZN5faiss15BitstringWriter5writeEmi.exit ], [ 0, %24 ]
  %34 = getelementptr inbounds i32, ptr %28, i64 %indvars.iv
  %35 = load i32, ptr %34, align 4
  %36 = sext i32 %35 to i64
  %37 = load ptr, ptr %22, align 8
  %38 = getelementptr inbounds i64, ptr %37, i64 %indvars.iv
  %39 = load i64, ptr %38, align 8
  %40 = trunc i64 %39 to i32
  %41 = and i64 %.sroa.8.044, 7
  %42 = trunc i64 %41 to i32
  %43 = sub nuw nsw i32 8, %42
  %.not.i = icmp slt i32 %43, %40
  br i1 %.not.i, label %52, label %44

44:                                               ; preds = %.lr.ph
  %45 = shl nsw i64 %36, %41
  %46 = lshr i64 %.sroa.8.044, 3
  %47 = getelementptr inbounds i8, ptr %32, i64 %46
  %48 = load i8, ptr %47, align 1
  %49 = trunc i64 %45 to i8
  %50 = or i8 %48, %49
  store i8 %50, ptr %47, align 1
  %sext = shl i64 %39, 32
  %51 = ashr exact i64 %sext, 32
  br label %_ZN5faiss15BitstringWriter5writeEmi.exit

52:                                               ; preds = %.lr.ph
  %53 = lshr i64 %.sroa.8.044, 3
  %54 = shl nsw i64 %36, %41
  %55 = getelementptr inbounds i8, ptr %32, i64 %53
  %56 = load i8, ptr %55, align 1
  %57 = trunc i64 %54 to i8
  %58 = or i8 %56, %57
  store i8 %58, ptr %55, align 1
  %59 = and i64 %39, 4294967295
  %60 = zext nneg i32 %43 to i64
  %61 = lshr i64 %36, %60
  %.not1617.i = icmp eq i64 %61, 0
  br i1 %.not1617.i, label %_ZN5faiss15BitstringWriter5writeEmi.exit, label %.lr.ph.i

.lr.ph.i:                                         ; preds = %52, %.lr.ph.i
  %.0.in19.i = phi i64 [ %.0.i, %.lr.ph.i ], [ %53, %52 ]
  %.01318.i = phi i64 [ %66, %.lr.ph.i ], [ %61, %52 ]
  %.0.i = add nuw nsw i64 %.0.in19.i, 1
  %62 = getelementptr inbounds i8, ptr %32, i64 %.0.i
  %63 = load i8, ptr %62, align 1
  %64 = trunc i64 %.01318.i to i8
  %65 = or i8 %63, %64
  store i8 %65, ptr %62, align 1
  %66 = lshr i64 %.01318.i, 8
  %.not16.i = icmp ult i64 %.01318.i, 256
  br i1 %.not16.i, label %_ZN5faiss15BitstringWriter5writeEmi.exit, label %.lr.ph.i, !llvm.loop !11

_ZN5faiss15BitstringWriter5writeEmi.exit:         ; preds = %.lr.ph.i, %44, %52
  %.pn = phi i64 [ %59, %52 ], [ %51, %44 ], [ %59, %.lr.ph.i ]
  %.sroa.8.1 = add i64 %.pn, %.sroa.8.044
  %indvars.iv.next = add nuw nsw i64 %indvars.iv, 1
  %67 = load i64, ptr %21, align 8
  %68 = icmp ugt i64 %67, %indvars.iv.next
  br i1 %68, label %.lr.ph, label %._crit_edge, !llvm.loop !12

._crit_edge:                                      ; preds = %_ZN5faiss15BitstringWriter5writeEmi.exit, %24
  %.sroa.8.0.lcssa = phi i64 [ 0, %24 ], [ %.sroa.8.1, %_ZN5faiss15BitstringWriter5writeEmi.exit ]
  %69 = load i64, ptr %23, align 8
  %.not25 = icmp eq i64 %69, 0
  br i1 %.not25, label %_ZN5faiss15BitstringWriter5writeEmi.exit33, label %70

70:                                               ; preds = %._crit_edge
  %71 = load ptr, ptr %7, align 8
  %72 = getelementptr inbounds float, ptr %71, i64 %.02346
  %73 = load float, ptr %72, align 4
  %74 = invoke noundef i64 @_ZNK5faiss17AdditiveQuantizer11encode_normEf(ptr noundef nonnull align 8 dereferenceable(308) %6, float noundef %73)
          to label %75 unwind label %107, !range !13

75:                                               ; preds = %70
  %76 = load i64, ptr %23, align 8
  %77 = trunc i64 %76 to i32
  %78 = and i64 %.sroa.8.0.lcssa, 7
  %79 = trunc i64 %78 to i32
  %80 = sub nuw nsw i32 8, %79
  %.not.i26 = icmp slt i32 %80, %77
  br i1 %.not.i26, label %88, label %81

81:                                               ; preds = %75
  %82 = shl nuw nsw i64 %74, %78
  %83 = lshr i64 %.sroa.8.0.lcssa, 3
  %84 = getelementptr inbounds i8, ptr %32, i64 %83
  %85 = load i8, ptr %84, align 1
  %86 = trunc i64 %82 to i8
  %87 = or i8 %85, %86
  store i8 %87, ptr %84, align 1
  br label %_ZN5faiss15BitstringWriter5writeEmi.exit33

88:                                               ; preds = %75
  %89 = lshr i64 %.sroa.8.0.lcssa, 3
  %90 = shl nuw nsw i64 %74, %78
  %91 = getelementptr inbounds i8, ptr %32, i64 %89
  %92 = load i8, ptr %91, align 1
  %93 = trunc i64 %90 to i8
  %94 = or i8 %92, %93
  store i8 %94, ptr %91, align 1
  %95 = zext nneg i32 %80 to i64
  %96 = lshr i64 %74, %95
  %.not1617.i27 = icmp eq i64 %96, 0
  br i1 %.not1617.i27, label %_ZN5faiss15BitstringWriter5writeEmi.exit33, label %.lr.ph.i28

.lr.ph.i28:                                       ; preds = %88, %.lr.ph.i28
  %.0.in19.i29 = phi i64 [ %.0.i31, %.lr.ph.i28 ], [ %89, %88 ]
  %.01318.i30 = phi i64 [ %101, %.lr.ph.i28 ], [ %96, %88 ]
  %.0.i31 = add nuw nsw i64 %.0.in19.i29, 1
  %97 = getelementptr inbounds i8, ptr %32, i64 %.0.i31
  %98 = load i8, ptr %97, align 1
  %99 = trunc i64 %.01318.i30 to i8
  %100 = or i8 %98, %99
  store i8 %100, ptr %97, align 1
  %101 = lshr i64 %.01318.i30, 8
  %.not16.i32 = icmp ult i64 %.01318.i30, 256
  br i1 %.not16.i32, label %_ZN5faiss15BitstringWriter5writeEmi.exit33, label %.lr.ph.i28, !llvm.loop !11

_ZN5faiss15BitstringWriter5writeEmi.exit33:       ; preds = %.lr.ph.i28, %88, %81, %._crit_edge
  %102 = add nuw i64 %.02346, 1
  %103 = load i64, ptr %10, align 8
  %104 = add i64 %103, 1
  %105 = icmp ult i64 %102, %104
  br i1 %105, label %24, label %._crit_edge49

._crit_edge49:                                    ; preds = %_ZN5faiss15BitstringWriter5writeEmi.exit33, %14
  call void @__kmpc_for_static_fini(ptr nonnull @1, i32 %16)
  br label %106

106:                                              ; preds = %._crit_edge49, %8
  ret void

107:                                              ; preds = %70
  %108 = landingpad { ptr, i32 }
          catch ptr null
  %109 = extractvalue { ptr, i32 } %108, 0
  call void @__clang_call_terminate(ptr %109) #21
  unreachable
}